; ModuleID = '64/2482.c'
source_filename = "64/2482.c"
target datalayout = "e-m:e-p270:32:32-p271:32:32-p272:64:64-i64:64-f80:128-n8:16:32:64-S128"
target triple = "x86_64-pc-linux-gnu"

@.str = private unnamed_addr constant [3 x i8] c"%d\00", align 1
@.str.1 = private unnamed_addr constant [9 x i8] c"%d %d %d\00", align 1
@.str.2 = private unnamed_addr constant [28 x i8] c"(%d,%d,%d)-(%d,%d,%d)=%.2f\0A\00", align 1

; Function Attrs: noinline nounwind uwtable
define dso_local i32 @main() #0 {
  %1 = alloca i32, align 4
  %2 = alloca i32, align 4
  %3 = alloca [20 x i32], align 16
  %4 = alloca [20 x i32], align 16
  %5 = alloca [20 x i32], align 16
  %6 = alloca i32, align 4
  %7 = alloca i32, align 4
  %8 = alloca i32, align 4
  %9 = alloca i32, align 4
  %10 = alloca i32, align 4
  %11 = alloca [20 x [20 x double]], align 16
  %12 = alloca double, align 8
  store i32 0, i32* %1, align 4
  %13 = bitcast [20 x [20 x double]]* %11 to i8*
  call void @llvm.memset.p0i8.i64(i8* align 16 %13, i8 0, i64 3200, i1 false)
  %14 = call i32 (i8*, ...) @__isoc99_scanf(i8* getelementptr inbounds ([3 x i8], [3 x i8]* @.str, i64 0, i64 0), i32* %2)
  store i32 1, i32* %6, align 4
  br label %15

15:                                               ; preds = %30, %0
  %16 = load i32, i32* %6, align 4
  %17 = load i32, i32* %2, align 4
  %18 = icmp sle i32 %16, %17
  br i1 %18, label %19, label %33

19:                                               ; preds = %15
  %20 = load i32, i32* %6, align 4
  %21 = sext i32 %20 to i64
  %22 = getelementptr inbounds [20 x i32], [20 x i32]* %3, i64 0, i64 %21
  %23 = load i32, i32* %6, align 4
  %24 = sext i32 %23 to i64
  %25 = getelementptr inbounds [20 x i32], [20 x i32]* %4, i64 0, i64 %24
  %26 = load i32, i32* %6, align 4
  %27 = sext i32 %26 to i64
  %28 = getelementptr inbounds [20 x i32], [20 x i32]* %5, i64 0, i64 %27
  %29 = call i32 (i8*, ...) @__isoc99_scanf(i8* getelementptr inbounds ([9 x i8], [9 x i8]* @.str.1, i64 0, i64 0), i32* %22, i32* %25, i32* %28)
  br label %30

30:                                               ; preds = %19
  %31 = load i32, i32* %6, align 4
  %32 = add nsw i32 %31, 1
  store i32 %32, i32* %6, align 4
  br label %15

33:                                               ; preds = %15
  store i32 1, i32* %6, align 4
  br label %34

34:                                               ; preds = %117, %33
  %35 = load i32, i32* %6, align 4
  %36 = load i32, i32* %2, align 4
  %37 = icmp slt i32 %35, %36
  br i1 %37, label %38, label %120

38:                                               ; preds = %34
  %39 = load i32, i32* %6, align 4
  %40 = add nsw i32 %39, 1
  store i32 %40, i32* %7, align 4
  br label %41

41:                                               ; preds = %113, %38
  %42 = load i32, i32* %7, align 4
  %43 = load i32, i32* %2, align 4
  %44 = icmp sle i32 %42, %43
  br i1 %44, label %45, label %116

45:                                               ; preds = %41
  %46 = load i32, i32* %6, align 4
  %47 = sext i32 %46 to i64
  %48 = getelementptr inbounds [20 x i32], [20 x i32]* %3, i64 0, i64 %47
  %49 = load i32, i32* %48, align 4
  %50 = load i32, i32* %7, align 4
  %51 = sext i32 %50 to i64
  %52 = getelementptr inbounds [20 x i32], [20 x i32]* %3, i64 0, i64 %51
  %53 = load i32, i32* %52, align 4
  %54 = sub nsw i32 %49, %53
  %55 = load i32, i32* %6, align 4
  %56 = sext i32 %55 to i64
  %57 = getelementptr inbounds [20 x i32], [20 x i32]* %3, i64 0, i64 %56
  %58 = load i32, i32* %57, align 4
  %59 = load i32, i32* %7, align 4
  %60 = sext i32 %59 to i64
  %61 = getelementptr inbounds [20 x i32], [20 x i32]* %3, i64 0, i64 %60
  %62 = load i32, i32* %61, align 4
  %63 = sub nsw i32 %58, %62
  %64 = mul nsw i32 %54, %63
  %65 = load i32, i32* %6, align 4
  %66 = sext i32 %65 to i64
  %67 = getelementptr inbounds [20 x i32], [20 x i32]* %4, i64 0, i64 %66
  %68 = load i32, i32* %67, align 4
  %69 = load i32, i32* %7, align 4
  %70 = sext i32 %69 to i64
  %71 = getelementptr inbounds [20 x i32], [20 x i32]* %4, i64 0, i64 %70
  %72 = load i32, i32* %71, align 4
  %73 = sub nsw i32 %68, %72
  %74 = load i32, i32* %6, align 4
  %75 = sext i32 %74 to i64
  %76 = getelementptr inbounds [20 x i32], [20 x i32]* %4, i64 0, i64 %75
  %77 = load i32, i32* %76, align 4
  %78 = load i32, i32* %7, align 4
  %79 = sext i32 %78 to i64
  %80 = getelementptr inbounds [20 x i32], [20 x i32]* %4, i64 0, i64 %79
  %81 = load i32, i32* %80, align 4
  %82 = sub nsw i32 %77, %81
  %83 = mul nsw i32 %73, %82
  %84 = add nsw i32 %64, %83
  %85 = load i32, i32* %6, align 4
  %86 = sext i32 %85 to i64
  %87 = getelementptr inbounds [20 x i32], [20 x i32]* %5, i64 0, i64 %86
  %88 = load i32, i32* %87, align 4
  %89 = load i32, i32* %7, align 4
  %90 = sext i32 %89 to i64
  %91 = getelementptr inbounds [20 x i32], [20 x i32]* %5, i64 0, i64 %90
  %92 = load i32, i32* %91, align 4
  %93 = sub nsw i32 %88, %92
  %94 = load i32, i32* %6, align 4
  %95 = sext i32 %94 to i64
  %96 = getelementptr inbounds [20 x i32], [20 x i32]* %5, i64 0, i64 %95
  %97 = load i32, i32* %96, align 4
  %98 = load i32, i32* %7, align 4
  %99 = sext i32 %98 to i64
  %100 = getelementptr inbounds [20 x i32], [20 x i32]* %5, i64 0, i64 %99
  %101 = load i32, i32* %100, align 4
  %102 = sub nsw i32 %97, %101
  %103 = mul nsw i32 %93, %102
  %104 = add nsw i32 %84, %103
  %105 = sitofp i32 %104 to double
  %106 = call double @sqrt(double %105) #4
  %107 = load i32, i32* %6, align 4
  %108 = sext i32 %107 to i64
  %109 = getelementptr inbounds [20 x [20 x double]], [20 x [20 x double]]* %11, i64 0, i64 %108
  %110 = load i32, i32* %7, align 4
  %111 = sext i32 %110 to i64
  %112 = getelementptr inbounds [20 x double], [20 x double]* %109, i64 0, i64 %111
  store double %106, double* %112, align 8
  br label %113

113:                                              ; preds = %45
  %114 = load i32, i32* %7, align 4
  %115 = add nsw i32 %114, 1
  store i32 %115, i32* %7, align 4
  br label %41

116:                                              ; preds = %41
  br label %117

117:                                              ; preds = %116
  %118 = load i32, i32* %6, align 4
  %119 = add nsw i32 %118, 1
  store i32 %119, i32* %6, align 4
  br label %34

120:                                              ; preds = %34
  store i32 1, i32* %6, align 4
  br label %121

121:                                              ; preds = %208, %120
  %122 = load i32, i32* %6, align 4
  %123 = load i32, i32* %2, align 4
  %124 = load i32, i32* %2, align 4
  %125 = sub nsw i32 %124, 1
  %126 = mul nsw i32 %123, %125
  %127 = sdiv i32 %126, 2
  %128 = icmp sle i32 %122, %127
  br i1 %128, label %129, label %211

129:                                              ; preds = %121
  store double 0.000000e+00, double* %12, align 8
  store i32 1, i32* %7, align 4
  br label %130

130:                                              ; preds = %166, %129
  %131 = load i32, i32* %7, align 4
  %132 = load i32, i32* %2, align 4
  %133 = icmp slt i32 %131, %132
  br i1 %133, label %134, label %169

134:                                              ; preds = %130
  %135 = load i32, i32* %7, align 4
  %136 = add nsw i32 %135, 1
  store i32 %136, i32* %10, align 4
  br label %137

137:                                              ; preds = %162, %134
  %138 = load i32, i32* %10, align 4
  %139 = load i32, i32* %2, align 4
  %140 = icmp sle i32 %138, %139
  br i1 %140, label %141, label %165

141:                                              ; preds = %137
  %142 = load i32, i32* %7, align 4
  %143 = sext i32 %142 to i64
  %144 = getelementptr inbounds [20 x [20 x double]], [20 x [20 x double]]* %11, i64 0, i64 %143
  %145 = load i32, i32* %10, align 4
  %146 = sext i32 %145 to i64
  %147 = getelementptr inbounds [20 x double], [20 x double]* %144, i64 0, i64 %146
  %148 = load double, double* %147, align 8
  %149 = load double, double* %12, align 8
  %150 = fcmp ogt double %148, %149
  br i1 %150, label %151, label %161

151:                                              ; preds = %141
  %152 = load i32, i32* %7, align 4
  %153 = sext i32 %152 to i64
  %154 = getelementptr inbounds [20 x [20 x double]], [20 x [20 x double]]* %11, i64 0, i64 %153
  %155 = load i32, i32* %10, align 4
  %156 = sext i32 %155 to i64
  %157 = getelementptr inbounds [20 x double], [20 x double]* %154, i64 0, i64 %156
  %158 = load double, double* %157, align 8
  store double %158, double* %12, align 8
  %159 = load i32, i32* %7, align 4
  store i32 %159, i32* %8, align 4
  %160 = load i32, i32* %10, align 4
  store i32 %160, i32* %9, align 4
  br label %161

161:                                              ; preds = %151, %141
  br label %162

162:                                              ; preds = %161
  %163 = load i32, i32* %10, align 4
  %164 = add nsw i32 %163, 1
  store i32 %164, i32* %10, align 4
  br label %137

165:                                              ; preds = %137
  br label %166

166:                                              ; preds = %165
  %167 = load i32, i32* %7, align 4
  %168 = add nsw i32 %167, 1
  store i32 %168, i32* %7, align 4
  br label %130

169:                                              ; preds = %130
  %170 = load i32, i32* %8, align 4
  %171 = sext i32 %170 to i64
  %172 = getelementptr inbounds [20 x i32], [20 x i32]* %3, i64 0, i64 %171
  %173 = load i32, i32* %172, align 4
  %174 = load i32, i32* %8, align 4
  %175 = sext i32 %174 to i64
  %176 = getelementptr inbounds [20 x i32], [20 x i32]* %4, i64 0, i64 %175
  %177 = load i32, i32* %176, align 4
  %178 = load i32, i32* %8, align 4
  %179 = sext i32 %178 to i64
  %180 = getelementptr inbounds [20 x i32], [20 x i32]* %5, i64 0, i64 %179
  %181 = load i32, i32* %180, align 4
  %182 = load i32, i32* %9, align 4
  %183 = sext i32 %182 to i64
  %184 = getelementptr inbounds [20 x i32], [20 x i32]* %3, i64 0, i64 %183
  %185 = load i32, i32* %184, align 4
  %186 = load i32, i32* %9, align 4
  %187 = sext i32 %186 to i64
  %188 = getelementptr inbounds [20 x i32], [20 x i32]* %4, i64 0, i64 %187
  %189 = load i32, i32* %188, align 4
  %190 = load i32, i32* %9, align 4
  %191 = sext i32 %190 to i64
  %192 = getelementptr inbounds [20 x i32], [20 x i32]* %5, i64 0, i64 %191
  %193 = load i32, i32* %192, align 4
  %194 = load i32, i32* %8, align 4
  %195 = sext i32 %194 to i64
  %196 = getelementptr inbounds [20 x [20 x double]], [20 x [20 x double]]* %11, i64 0, i64 %195
  %197 = load i32, i32* %9, align 4
  %198 = sext i32 %197 to i64
  %199 = getelementptr inbounds [20 x double], [20 x double]* %196, i64 0, i64 %198
  %200 = load double, double* %199, align 8
  %201 = call i32 (i8*, ...) @printf(i8* getelementptr inbounds ([28 x i8], [28 x i8]* @.str.2, i64 0, i64 0), i32 %173, i32 %177, i32 %181, i32 %185, i32 %189, i32 %193, double %200)
  %202 = load i32, i32* %8, align 4
  %203 = sext i32 %202 to i64
  %204 = getelementptr inbounds [20 x [20 x double]], [20 x [20 x double]]* %11, i64 0, i64 %203
  %205 = load i32, i32* %9, align 4
  %206 = sext i32 %205 to i64
  %207 = getelementptr inbounds [20 x double], [20 x double]* %204, i64 0, i64 %206
  store double 0.000000e+00, double* %207, align 8
  br label %208

208:                                              ; preds = %169
  %209 = load i32, i32* %6, align 4
  %210 = add nsw i32 %209, 1
  store i32 %210, i32* %6, align 4
  br label %121

211:                                              ; preds = %121
  ret i32 0
}

; Function Attrs: argmemonly nounwind willreturn
declare void @llvm.memset.p0i8.i64(i8* nocapture writeonly, i8, i64, i1 immarg) #1

declare dso_local i32 @__isoc99_scanf(i8*, ...) #2

; Function Attrs: nounwind
declare dso_local double @sqrt(double) #3

declare dso_local i32 @printf(i8*, ...) #2


!llvm.module.flags = !{!0}
!llvm.ident = !{!1}

!0 = !{i32 1, !"wchar_size", i32 4}
!1 = !{!"clang version 10.0.0-4ubuntu1 "}
